target datalayout = "e-m:e-p270:32:32-p271:32:32-p272:64:64-i64:64-i128:128-f80:128-n8:16:32:64-S128"
target triple = "x86_64-pc-linux-gnu"

%struct.CVodeMemRec = type { double, ptr, ptr, i32, i32, i32, double, double, ptr, i32, ptr, ptr, i32, ptr, i32, i32, double, double, ptr, i32, i32, i32, ptr, ptr, ptr, i32, i32, ptr, ptr, ptr, i32, double, i32, i32, double, ptr, ptr, i32, ptr, ptr, i32, i32, i32, double, ptr, ptr, [13 x ptr], ptr, ptr, ptr, ptr, ptr, [13 x ptr], ptr, ptr, ptr, ptr, [13 x ptr], ptr, ptr, ptr, ptr, ptr, i32, [13 x ptr], ptr, ptr, ptr, ptr, ptr, i32, double, i32, i32, i32, i32, i32, double, double, double, double, double, double, double, double, [14 x double], [6 x double], [13 x double], double, double, double, double, double, double, double, double, double, double, double, i32, ptr, i32, i64, i32, i32, i32, i32, i32, double, double, double, i64, i64, i64, i64, i64, i64, i64, i64, i64, ptr, i64, i64, ptr, i64, i64, i64, i64, i64, i64, i32, i64, i64, i64, i64, i64, i64, double, double, double, ptr, ptr, ptr, ptr, ptr, i32, i32, i64, double, double, double, i32, double, i32, i32, i32, i32, i32, i32, i32, i32, i32, i32, i32, i32, i32, i32, i32, i32, ptr, ptr, ptr, i32, [6 x [4 x double]], i32, i64, ptr, i32, ptr, ptr, double, double, double, ptr, ptr, ptr, double, double, i32, i32, i64, ptr, i32, i32, ptr, i32 }
%struct.CVSpilsMemRec = type { i32, i32, i32, double, double, double, double, i32, i64, i64, i64, i64, i64, i64, i64, ptr, ptr, ptr, ptr, ptr, ptr, ptr, ptr, ptr, i32, ptr, ptr, i64 }

@.str = private unnamed_addr constant [8 x i8] c"CVSPILS\00", align 1
@.str.2 = private unnamed_addr constant [27 x i8] c"Integrator memory is NULL.\00", align 1
@.str.3 = private unnamed_addr constant [30 x i8] c"Linear solver memory is NULL.\00", align 1
@.str.14 = private unnamed_addr constant [23 x i8] c"CVSpilsGetNumPrecEvals\00", align 1

; Function Attrs: nounwind uwtable
define i32 @CVSpilsGetNumPrecEvals(ptr noundef %0, ptr noundef %1) #0 {
  %3 = alloca i32, align 4
  %4 = alloca ptr, align 8
  %5 = alloca ptr, align 8
  %6 = alloca ptr, align 8
  %7 = alloca ptr, align 8
  %8 = alloca i32, align 4
  store ptr %0, ptr %4, align 8, !tbaa !3
  store ptr %1, ptr %5, align 8, !tbaa !35
  call void @llvm.lifetime.start.p0(i64 8, ptr %6) #5
  call void @llvm.lifetime.start.p0(i64 8, ptr %7) #5
  %9 = load ptr, ptr %4, align 8, !tbaa !3
  %10 = icmp eq ptr %9, null
  br i1 %10, label %11, label %12

11:                                               ; preds = %2
  call void (ptr, i32, ptr, ptr, ptr, ...) @cvProcessError(ptr noundef null, i32 noundef -1, ptr noundef @.str, ptr noundef @.str.14, ptr noundef @.str.2)
  store i32 -1, ptr %3, align 4
  store i32 1, ptr %8, align 4
  br label %28

12:                                               ; preds = %2
  %13 = load ptr, ptr %4, align 8, !tbaa !3
  store ptr %13, ptr %6, align 8, !tbaa !9
  %14 = load ptr, ptr %6, align 8, !tbaa !9
  %15 = getelementptr inbounds nuw %struct.CVodeMemRec, ptr %14, i32 0, i32 144
  %16 = load ptr, ptr %15, align 8, !tbaa !11
  %17 = icmp eq ptr %16, null
  br i1 %17, label %18, label %20

18:                                               ; preds = %12
  %19 = load ptr, ptr %6, align 8, !tbaa !9
  call void (ptr, i32, ptr, ptr, ptr, ...) @cvProcessError(ptr noundef %19, i32 noundef -2, ptr noundef @.str, ptr noundef @.str.14, ptr noundef @.str.3)
  store i32 -2, ptr %3, align 4
  store i32 1, ptr %8, align 4
  br label %28

20:                                               ; preds = %12
  %21 = load ptr, ptr %6, align 8, !tbaa !9
  %22 = getelementptr inbounds nuw %struct.CVodeMemRec, ptr %21, i32 0, i32 144
  %23 = load ptr, ptr %22, align 8, !tbaa !11
  store ptr %23, ptr %7, align 8, !tbaa !22
  %24 = load ptr, ptr %7, align 8, !tbaa !22
  %25 = getelementptr inbounds nuw %struct.CVSpilsMemRec, ptr %24, i32 0, i32 9
  %26 = load i64, ptr %25, align 8, !tbaa !39
  %27 = load ptr, ptr %5, align 8, !tbaa !35
  store i64 %26, ptr %27, align 8, !tbaa !37
  store i32 0, ptr %3, align 4
  store i32 1, ptr %8, align 4
  br label %28

28:                                               ; preds = %20, %18, %11
  call void @llvm.lifetime.end.p0(i64 8, ptr %7) #5
  call void @llvm.lifetime.end.p0(i64 8, ptr %6) #5
  %29 = load i32, ptr %3, align 4
  ret i32 %29
}